target datalayout = "e-m:e-p270:32:32-p271:32:32-p272:64:64-i64:64-i128:128-f80:128-n8:16:32:64-S128"
target triple = "x86_64-pc-linux-gnu"

%struct.ExprState = type { i32, i8, i8, i64, ptr, ptr, ptr, ptr, ptr, i32, i32, ptr, ptr, ptr, ptr, ptr, ptr, ptr }
%struct.ExprEvalStep = type { i64, ptr, ptr, %union.anon }
%union.anon = type { %struct.anon.23 }
%struct.anon.23 = type { ptr, ptr, i32, i32, ptr, ptr }
%struct.anon.5 = type { i64, i8 }

; Function Attrs: nounwind uwtable
define internal i64 @ExecJustConst(ptr noundef %0, ptr noundef %1, ptr noundef %2) #0 {
  %4 = alloca ptr, align 8
  %5 = alloca ptr, align 8
  %6 = alloca ptr, align 8
  %7 = alloca ptr, align 8
  store ptr %0, ptr %4, align 8
  store ptr %1, ptr %5, align 8
  store ptr %2, ptr %6, align 8
  call void @llvm.lifetime.start.p0(i64 8, ptr %7) #11
  %8 = load ptr, ptr %4, align 8
  %9 = getelementptr inbounds nuw %struct.ExprState, ptr %8, i32 0, i32 5
  %10 = load ptr, ptr %9, align 8
  %11 = getelementptr inbounds %struct.ExprEvalStep, ptr %10, i64 0
  store ptr %11, ptr %7, align 8
  %12 = load ptr, ptr %7, align 8
  %13 = getelementptr inbounds nuw %struct.ExprEvalStep, ptr %12, i32 0, i32 3
  %14 = getelementptr inbounds nuw %struct.anon.5, ptr %13, i32 0, i32 1
  %15 = load i8, ptr %14, align 8, !range !7, !noundef !8
  %16 = trunc i8 %15 to i1
  %17 = load ptr, ptr %6, align 8
  %18 = zext i1 %16 to i8
  store i8 %18, ptr %17, align 1
  %19 = load ptr, ptr %7, align 8
  %20 = getelementptr inbounds nuw %struct.ExprEvalStep, ptr %19, i32 0, i32 3
  %21 = getelementptr inbounds nuw %struct.anon.5, ptr %20, i32 0, i32 0
  %22 = load i64, ptr %21, align 8
  call void @llvm.lifetime.end.p0(i64 8, ptr %7) #11
  ret i64 %22
}