; Function Attrs: mustprogress nofree norecurse nosync nounwind willreturn memory(read, argmem: readwrite, inaccessiblemem: none) uwtable
define internal i64 @ExecJustConst(ptr noundef readonly captures(none) %0, ptr readnone captures(none) %1, ptr noundef writeonly captures(none) initializes((0, 1)) %2) #2 {
  %4 = getelementptr inbounds nuw i8, ptr %0, i64 24
  %5 = load ptr, ptr %4, align 8
  %6 = getelementptr inbounds nuw i8, ptr %5, i64 24
  %7 = getelementptr inbounds nuw i8, ptr %5, i64 32
  %8 = load i8, ptr %7, align 8, !range !8, !noundef !9
  store i8 %8, ptr %2, align 1
  %9 = load i64, ptr %6, align 8
  ret i64 %9
}